target datalayout = "e-m:e-p270:32:32-p271:32:32-p272:64:64-i64:64-i128:128-f80:128-n8:16:32:64-S128"
target triple = "x86_64-pc-linux-gnu"

%"class.std::__cxx11::basic_string" = type { %"struct.std::__cxx11::basic_string<char>::_Alloc_hider", i64, %union.anon }
%"struct.std::__cxx11::basic_string<char>::_Alloc_hider" = type { ptr }
%union.anon = type { i64, [8 x i8] }
%class.StatementAssign = type { %class.Statement, i32, ptr, ptr, ptr, ptr, %"class.std::__cxx11::basic_string", %"class.std::__cxx11::basic_string" }
%class.Statement = type { ptr, i32, i32, ptr, ptr }

; Function Attrs: mustprogress uwtable
define dso_local void @_ZN15StatementAssignC2EP5BlockRK3LhsRK10Expression10eAssignOpsPK11SafeOpFlags(ptr noundef nonnull align 8 dereferenceable(136) %0, ptr noundef %1, ptr noundef nonnull align 8 dereferenceable(41) %2, ptr noundef nonnull align 8 dereferenceable(24) %3, i32 noundef %4, ptr noundef %5) unnamed_addr #5 align 2 {
  %7 = alloca ptr, align 8
  %8 = alloca ptr, align 8
  %9 = alloca ptr, align 8
  %10 = alloca ptr, align 8
  %11 = alloca i32, align 4
  %12 = alloca ptr, align 8
  store ptr %0, ptr %7, align 8
  store ptr %1, ptr %8, align 8
  store ptr %2, ptr %9, align 8
  store ptr %3, ptr %10, align 8
  store i32 %4, ptr %11, align 4
  store ptr %5, ptr %12, align 8
  %13 = load ptr, ptr %7, align 8
  %14 = load ptr, ptr %8, align 8
  call void @_ZN9StatementC2E14eStatementTypeP5Block(ptr noundef nonnull align 8 dereferenceable(32) %13, i32 noundef 0, ptr noundef %14)
  store ptr getelementptr inbounds ({ [13 x ptr] }, ptr @_ZTV15StatementAssign, i32 0, i32 0, i32 2), ptr %13, align 8
  %15 = getelementptr inbounds %class.StatementAssign, ptr %13, i32 0, i32 1
  %16 = load i32, ptr %11, align 4
  store i32 %16, ptr %15, align 8
  %17 = getelementptr inbounds %class.StatementAssign, ptr %13, i32 0, i32 2
  %18 = load ptr, ptr %9, align 8
  store ptr %18, ptr %17, align 8
  %19 = getelementptr inbounds %class.StatementAssign, ptr %13, i32 0, i32 3
  %20 = load ptr, ptr %10, align 8
  store ptr %20, ptr %19, align 8
  %21 = getelementptr inbounds %class.StatementAssign, ptr %13, i32 0, i32 4
  %22 = getelementptr inbounds %class.StatementAssign, ptr %13, i32 0, i32 3
  %23 = load ptr, ptr %22, align 8
  store ptr %23, ptr %21, align 8
  %24 = getelementptr inbounds %class.StatementAssign, ptr %13, i32 0, i32 5
  %25 = load ptr, ptr %12, align 8
  store ptr %25, ptr %24, align 8
  %26 = getelementptr inbounds %class.StatementAssign, ptr %13, i32 0, i32 6
  call void @_ZNSt7__cxx1112basic_stringIcSt11char_traitsIcESaIcEEC1Ev(ptr noundef nonnull align 8 dereferenceable(32) %26) #3
  %27 = getelementptr inbounds %class.StatementAssign, ptr %13, i32 0, i32 7
  call void @_ZNSt7__cxx1112basic_stringIcSt11char_traitsIcESaIcEEC1Ev(ptr noundef nonnull align 8 dereferenceable(32) %27) #3
  ret void
}