; Function Attrs: mustprogress uwtable
define dso_local void @_ZN15StatementAssignC2EP5BlockRK3LhsRK10Expression10eAssignOpsPK11SafeOpFlags(ptr noundef nonnull align 8 dereferenceable(136) %0, ptr noundef %1, ptr noundef nonnull align 8 dereferenceable(41) %2, ptr noundef nonnull align 8 dereferenceable(24) %3, i32 noundef %4, ptr noundef %5) unnamed_addr #4 align 2 {
  tail call void @_ZN9StatementC2E14eStatementTypeP5Block(ptr noundef nonnull align 8 dereferenceable(32) %0, i32 noundef 0, ptr noundef %1)
  store ptr getelementptr inbounds ({ [13 x ptr] }, ptr @_ZTV15StatementAssign, i64 0, i32 0, i64 2), ptr %0, align 8
  %7 = getelementptr inbounds i8, ptr %0, i64 32
  store i32 %4, ptr %7, align 8
  %8 = getelementptr inbounds i8, ptr %0, i64 40
  store ptr %2, ptr %8, align 8
  %9 = getelementptr inbounds i8, ptr %0, i64 48
  store ptr %3, ptr %9, align 8
  %10 = getelementptr inbounds i8, ptr %0, i64 56
  store ptr %3, ptr %10, align 8
  %11 = getelementptr inbounds i8, ptr %0, i64 64
  store ptr %5, ptr %11, align 8
  %12 = getelementptr inbounds i8, ptr %0, i64 72
  tail call void @_ZNSt7__cxx1112basic_stringIcSt11char_traitsIcESaIcEEC1Ev(ptr noundef nonnull align 8 dereferenceable(32) %12) #19
  %13 = getelementptr inbounds i8, ptr %0, i64 104
  tail call void @_ZNSt7__cxx1112basic_stringIcSt11char_traitsIcESaIcEEC1Ev(ptr noundef nonnull align 8 dereferenceable(32) %13) #19
  ret void
}